target datalayout = "e-m:e-p270:32:32-p271:32:32-p272:64:64-i64:64-i128:128-f80:128-n8:16:32:64-S128"
target triple = "x86_64-pc-linux-gnu"

%"class.cv::bioinspired::BasicRetinaFilter" = type { %"class.cv::bioinspired::TemplateBuffer", %"class.std::valarray", i32, i32, %"class.std::valarray", %"class.std::valarray", %"class.std::valarray", float, float, float, float, float, float, float, float }
%"class.cv::bioinspired::TemplateBuffer" = type { ptr, %"class.std::valarray", i64, i64, i64, i64, i64 }
%"class.std::valarray" = type { i64, ptr }

; Function Attrs: inlinehint mustprogress nounwind uwtable
define linkonce_odr hidden noundef i32 @_ZN2cv11bioinspired14TemplateBufferIfE12getNBcolumnsEv(ptr noundef nonnull align 8 dereferenceable(64) %0) #6 comdat align 2 {
  %2 = alloca ptr, align 8
  store ptr %0, ptr %2, align 8, !tbaa !23
  %3 = load ptr, ptr %2, align 8
  %4 = getelementptr inbounds nuw %"class.cv::bioinspired::TemplateBuffer", ptr %3, i32 0, i32 3
  %5 = load i64, ptr %4, align 8, !tbaa !30
  %6 = trunc i64 %5 to i32
  ret i32 %6
}

; Function Attrs: mustprogress uwtable
define hidden void @_ZN2cv11bioinspired17BasicRetinaFilter33_local_horizontalAnticausalFilterEPfjjPKj(ptr noundef nonnull align 8 dereferenceable(168) %0, ptr noundef %1, i32 noundef %2, i32 noundef %3, ptr noundef %4) #4 align 2 {
  %6 = alloca ptr, align 8
  %7 = alloca ptr, align 8
  %8 = alloca i32, align 4
  %9 = alloca i32, align 4
  %10 = alloca ptr, align 8
  %11 = alloca ptr, align 8
  %12 = alloca ptr, align 8
  %13 = alloca i32, align 4
  %14 = alloca i32, align 4
  %15 = alloca float, align 4
  %16 = alloca i32, align 4
  store ptr %0, ptr %6, align 8, !tbaa !3
  store ptr %1, ptr %7, align 8, !tbaa !49
  store i32 %2, ptr %8, align 4, !tbaa !8
  store i32 %3, ptr %9, align 4, !tbaa !8
  store ptr %4, ptr %10, align 8, !tbaa !113
  %17 = load ptr, ptr %6, align 8
  call void @llvm.lifetime.start.p0(i64 8, ptr %11) #3
  %18 = load ptr, ptr %7, align 8, !tbaa !49
  %19 = load i32, ptr %9, align 4, !tbaa !8
  %20 = getelementptr inbounds nuw %"class.cv::bioinspired::BasicRetinaFilter", ptr %17, i32 0, i32 0
  %21 = call noundef i32 @_ZN2cv11bioinspired14TemplateBufferIfE12getNBcolumnsEv(ptr noundef nonnull align 8 dereferenceable(64) %20)
  %22 = mul i32 %19, %21
  %23 = zext i32 %22 to i64
  %24 = getelementptr inbounds nuw float, ptr %18, i64 %23
  %25 = getelementptr inbounds float, ptr %24, i64 -1
  store ptr %25, ptr %11, align 8, !tbaa !49
  call void @llvm.lifetime.start.p0(i64 8, ptr %12) #3
  %26 = load ptr, ptr %10, align 8, !tbaa !113
  store ptr %26, ptr %12, align 8, !tbaa !113
  call void @llvm.lifetime.start.p0(i64 4, ptr %13) #3
  %27 = load i32, ptr %8, align 4, !tbaa !8
  store i32 %27, ptr %13, align 4, !tbaa !8
  br label %28

28:                                               ; preds = %61, %5
  %29 = load i32, ptr %13, align 4, !tbaa !8
  %30 = load i32, ptr %9, align 4, !tbaa !8
  %31 = icmp ult i32 %29, %30
  br i1 %31, label %33, label %32

32:                                               ; preds = %28
  store i32 2, ptr %14, align 4
  call void @llvm.lifetime.end.p0(i64 4, ptr %13) #3
  br label %64

33:                                               ; preds = %28
  call void @llvm.lifetime.start.p0(i64 4, ptr %15) #3
  store float 0.000000e+00, ptr %15, align 4, !tbaa !26
  call void @llvm.lifetime.start.p0(i64 4, ptr %16) #3
  store i32 0, ptr %16, align 4, !tbaa !8
  br label %34

34:                                               ; preds = %57, %33
  %35 = load i32, ptr %16, align 4, !tbaa !8
  %36 = getelementptr inbounds nuw %"class.cv::bioinspired::BasicRetinaFilter", ptr %17, i32 0, i32 0
  %37 = call noundef i32 @_ZN2cv11bioinspired14TemplateBufferIfE12getNBcolumnsEv(ptr noundef nonnull align 8 dereferenceable(64) %36)
  %38 = icmp ult i32 %35, %37
  br i1 %38, label %40, label %39

39:                                               ; preds = %34
  store i32 5, ptr %14, align 4
  call void @llvm.lifetime.end.p0(i64 4, ptr %16) #3
  br label %60

40:                                               ; preds = %34
  %41 = load ptr, ptr %12, align 8, !tbaa !113
  %42 = getelementptr inbounds nuw i32, ptr %41, i32 1
  store ptr %42, ptr %12, align 8, !tbaa !113
  %43 = load i32, ptr %41, align 4, !tbaa !8
  %44 = icmp ne i32 %43, 0
  br i1 %44, label %45, label %52

45:                                               ; preds = %40
  %46 = load ptr, ptr %11, align 8, !tbaa !49
  %47 = load float, ptr %46, align 4, !tbaa !26
  %48 = getelementptr inbounds nuw %"class.cv::bioinspired::BasicRetinaFilter", ptr %17, i32 0, i32 12
  %49 = load float, ptr %48, align 4, !tbaa !46
  %50 = load float, ptr %15, align 4, !tbaa !26
  %51 = call float @llvm.fmuladd.f32(float %49, float %50, float %47)
  store float %51, ptr %15, align 4, !tbaa !26
  br label %53

52:                                               ; preds = %40
  store float 0.000000e+00, ptr %15, align 4, !tbaa !26
  br label %53

53:                                               ; preds = %52, %45
  %54 = load float, ptr %15, align 4, !tbaa !26
  %55 = load ptr, ptr %11, align 8, !tbaa !49
  %56 = getelementptr inbounds float, ptr %55, i32 -1
  store ptr %56, ptr %11, align 8, !tbaa !49
  store float %54, ptr %55, align 4, !tbaa !26
  br label %57

57:                                               ; preds = %53
  %58 = load i32, ptr %16, align 4, !tbaa !8
  %59 = add i32 %58, 1
  store i32 %59, ptr %16, align 4, !tbaa !8
  br label %34, !llvm.loop !117

60:                                               ; preds = %39
  call void @llvm.lifetime.end.p0(i64 4, ptr %15) #3
  br label %61

61:                                               ; preds = %60
  %62 = load i32, ptr %13, align 4, !tbaa !8
  %63 = add i32 %62, 1
  store i32 %63, ptr %13, align 4, !tbaa !8
  br label %28, !llvm.loop !118

64:                                               ; preds = %32
  call void @llvm.lifetime.end.p0(i64 8, ptr %12) #3
  call void @llvm.lifetime.end.p0(i64 8, ptr %11) #3
  ret void
}