; Function Attrs: mustprogress nofree norecurse nosync nounwind memory(argmem: readwrite) uwtable
define hidden void @_ZN2cv11bioinspired17BasicRetinaFilter33_local_horizontalAnticausalFilterEPfjjPKj(ptr noundef nonnull readonly align 8 captures(none) dereferenceable(168) %0, ptr noundef captures(none) %1, i32 noundef %2, i32 noundef %3, ptr noundef readonly captures(none) %4) local_unnamed_addr #9 align 2 {
  %6 = getelementptr inbounds nuw i8, ptr %0, i64 32
  %7 = load i64, ptr %6, align 8, !tbaa !17
  %8 = trunc i64 %7 to i32
  %9 = icmp ult i32 %2, %3
  br i1 %9, label %.preheader.lr.ph, label %._crit_edge28

.preheader.lr.ph:                                 ; preds = %5
  %.not = icmp eq i32 %8, 0
  %10 = getelementptr inbounds nuw i8, ptr %0, i64 156
  br i1 %.not, label %._crit_edge28, label %.preheader.us.preheader

.preheader.us.preheader:                          ; preds = %.preheader.lr.ph
  %11 = mul i32 %3, %8
  %12 = zext i32 %11 to i64
  %13 = getelementptr inbounds nuw float, ptr %1, i64 %12
  %14 = getelementptr inbounds i8, ptr %13, i64 -4
  br label %.preheader.us

.preheader.us:                                    ; preds = %.preheader.us.preheader, %._crit_edge.us
  %.01527.us = phi i32 [ %25, %._crit_edge.us ], [ %2, %.preheader.us.preheader ]
  %.01626.us = phi ptr [ %16, %._crit_edge.us ], [ %4, %.preheader.us.preheader ]
  %.01825.us = phi ptr [ %23, %._crit_edge.us ], [ %14, %.preheader.us.preheader ]
  br label %15

15:                                               ; preds = %.preheader.us, %22
  %.023.us = phi i32 [ 0, %.preheader.us ], [ %24, %22 ]
  %.01422.us = phi float [ 0.000000e+00, %.preheader.us ], [ %.1.us, %22 ]
  %.11721.us = phi ptr [ %.01626.us, %.preheader.us ], [ %16, %22 ]
  %.11920.us = phi ptr [ %.01825.us, %.preheader.us ], [ %23, %22 ]
  %16 = getelementptr inbounds nuw i8, ptr %.11721.us, i64 4
  %17 = load i32, ptr %.11721.us, align 4, !tbaa !61
  %.not.us = icmp eq i32 %17, 0
  br i1 %.not.us, label %22, label %18

18:                                               ; preds = %15
  %19 = load float, ptr %.11920.us, align 4, !tbaa !11
  %20 = load float, ptr %10, align 4, !tbaa !65
  %21 = tail call float @llvm.fmuladd.f32(float %20, float %.01422.us, float %19)
  br label %22

22:                                               ; preds = %18, %15
  %.1.us = phi float [ %21, %18 ], [ 0.000000e+00, %15 ]
  %23 = getelementptr inbounds i8, ptr %.11920.us, i64 -4
  store float %.1.us, ptr %.11920.us, align 4, !tbaa !11
  %24 = add nuw i32 %.023.us, 1
  %exitcond.not = icmp eq i32 %24, %8
  br i1 %exitcond.not, label %._crit_edge.us, label %15, !llvm.loop !121

._crit_edge.us:                                   ; preds = %22
  %25 = add nuw i32 %.01527.us, 1
  %exitcond31.not = icmp eq i32 %25, %3
  br i1 %exitcond31.not, label %._crit_edge28, label %.preheader.us, !llvm.loop !122

._crit_edge28:                                    ; preds = %._crit_edge.us, %.preheader.lr.ph, %5
  ret void
}